target datalayout = "e-m:e-p270:32:32-p271:32:32-p272:64:64-i64:64-i128:128-f80:128-n8:16:32:64-S128"
target triple = "x86_64-pc-linux-gnu"

; Function Attrs: mustprogress uwtable
define dso_local noundef ptr @_ZN9V3PreProc13createPreProcEP8FileLine(ptr noundef %0) #5 align 2 personality ptr @__gxx_personality_v0 {
  %2 = alloca ptr, align 8
  %3 = alloca ptr, align 8
  %4 = alloca ptr, align 8
  %5 = alloca i32, align 4
  store ptr %0, ptr %2, align 8, !tbaa !91
  call void @llvm.lifetime.start.p0(i64 8, ptr %3) #3
  %6 = call noalias noundef nonnull ptr @_Znwm(i64 noundef 1080) #32
  invoke void @_ZN12V3PreProcImpC2Ev(ptr noundef nonnull align 8 dereferenceable(1080) %6)
          to label %7 unwind label %11

7:                                                ; preds = %1
  store ptr %6, ptr %3, align 8, !tbaa !200
  %8 = load ptr, ptr %3, align 8, !tbaa !200
  %9 = load ptr, ptr %2, align 8, !tbaa !91
  call void @_ZN12V3PreProcImp9configureEP8FileLine(ptr noundef nonnull align 8 dereferenceable(1080) %8, ptr noundef %9)
  %10 = load ptr, ptr %3, align 8, !tbaa !200
  call void @llvm.lifetime.end.p0(i64 8, ptr %3) #3
  ret ptr %10

11:                                               ; preds = %1
  %12 = landingpad { ptr, i32 }
          cleanup
  %13 = extractvalue { ptr, i32 } %12, 0
  store ptr %13, ptr %4, align 8
  %14 = extractvalue { ptr, i32 } %12, 1
  store i32 %14, ptr %5, align 4
  call void @_ZdlPvm(ptr noundef %6, i64 noundef 1080) #31
  call void @llvm.lifetime.end.p0(i64 8, ptr %3) #3
  br label %15

15:                                               ; preds = %11
  %16 = load ptr, ptr %4, align 8
  %17 = load i32, ptr %5, align 4
  %18 = insertvalue { ptr, i32 } poison, ptr %16, 0
  %19 = insertvalue { ptr, i32 } %18, i32 %17, 1
  resume { ptr, i32 } %19
}