; Function Attrs: mustprogress uwtable
define dso_local noundef nonnull ptr @_ZN9V3PreProc13createPreProcEP8FileLine(ptr noundef %0) #5 align 2 personality ptr @__gxx_personality_v0 {
  %2 = tail call noalias noundef nonnull dereferenceable(1080) ptr @_Znwm(i64 noundef 1080) #50
  invoke void @_ZN12V3PreProcImpC2Ev(ptr noundef nonnull align 8 dereferenceable(1080) %2)
          to label %3 unwind label %4

3:                                                ; preds = %1
  tail call void @_ZN12V3PreProcImp9configureEP8FileLine(ptr noundef nonnull align 8 dereferenceable(1080) %2, ptr noundef %0)
  ret ptr %2

4:                                                ; preds = %1
  %5 = landingpad { ptr, i32 }
          cleanup
  tail call void @_ZdlPvm(ptr noundef nonnull %2, i64 noundef 1080) #45
  resume { ptr, i32 } %5
}